ccopy_reg
_reconstructor
p0
(cnetworkx.classes.graph
Graph
p1
c__builtin__
object
p2
Ntp3
Rp4
(dp5
S'node'
p6
(dp7
I2806947844
(dp8
S'pre_label'
p9
I23
sS'next_label'
p10
I23
sS'label'
p11
I23
ssI1295695877
(dp12
g9
I52
sg10
I52
sg11
I52
ssI1927184390
(dp13
g9
I10
sg10
I10
sg11
I10
ssI1969905672
(dp14
g9
I10
sg10
I10
sg11
I10
ssI1980137481
(dp15
g9
I11
sg10
I11
sg11
I11
ssI1782009354
(dp16
g9
I10
sg10
I10
sg11
I10
ssI2624356363
(dp17
g9
I52
sg10
I52
sg11
I52
ssI2172968974
(dp18
g9
I52
sg10
I52
sg11
I52
ssI1928757263
(dp19
g9
I23
sg10
I23
sg11
I23
ssI1671348242
(dp20
g9
I23
sg10
I23
sg11
I23
ssI1641562132
(dp21
g9
I10
sg10
I10
sg11
I10
ssI1877277205
(dp22
g9
I52
sg10
I52
sg11
I52
ssI1769313814
(dp23
g9
I23
sg10
I23
sg11
I23
ssI1913766423
(dp24
g9
I23
sg10
I23
sg11
I23
ssI1921564697
(dp25
g9
I52
sg10
I52
sg11
I52
ssI1377525787
(dp26
g9
I15
sg10
I15
sg11
I15
ssI1812031004
(dp27
g9
I52
sg10
I52
sg11
I52
ssI1171750945
(dp28
g9
I17
sg10
I17
sg11
I17
ssI2404646947
(dp29
g9
I23
sg10
I23
sg11
I23
ssI2787780132
(dp30
g9
I23
sg10
I23
sg11
I23
ssI1880686632
(dp31
g9
I17
sg10
I17
sg11
I17
ssI2631893034
(dp32
g9
I17
sg10
I17
sg11
I17
ssI1766719531
(dp33
g9
I52
sg10
I52
sg11
I52
ssI1840199725
(dp34
g9
I23
sg10
I23
sg11
I23
ssI2102132782
(dp35
g9
I52
sg10
I52
sg11
I52
ssI2342092850
(dp36
g9
I23
sg10
I23
sg11
I23
ssI2262204467
(dp37
g9
I48
sg10
I48
sg11
I48
ssI1956184117
(dp38
g9
I52
sg10
I52
sg11
I52
ssI1862259767
(dp39
g9
I52
sg10
I52
sg11
I52
ssI1638300730
(dp40
g9
I52
sg10
I52
sg11
I52
ssI2749530171
(dp41
g9
I10
sg10
I10
sg11
I10
ssI2395471882
(dp42
g9
I52
sg10
I52
sg11
I52
ssI1758855230
(dp43
g9
I11
sg10
I11
sg11
I11
ssI1906344003
(dp44
g9
I48
sg10
I48
sg11
I48
ssI1677992523
(dp45
g9
I52
sg10
I52
sg11
I52
ssI2158163021
(dp46
g9
I48
sg10
I48
sg11
I48
ssI1893496911
(dp47
g9
I23
sg10
I23
sg11
I23
ssI2367526841
(dp48
g9
I52
sg10
I52
sg11
I52
ssI1902840921
(dp49
g9
I52
sg10
I52
sg11
I52
ssI1809294351
(dp50
g9
I52
sg10
I52
sg11
I52
ssI1898919531
(dp51
g9
I10
sg10
I10
sg11
I10
ssI2674067061
(dp52
g9
I48
sg10
I48
sg11
I48
ssI1799821432
(dp53
g9
I52
sg10
I52
sg11
I52
ssI1701871671
(dp54
g9
I10
sg10
I10
sg11
I10
ssI1769781374
(dp55
g9
I23
sg10
I23
sg11
I23
ssI1910281152
(dp56
g9
I48
sg10
I48
sg11
I48
ssI1865318532
(dp57
g9
I10
sg10
I10
sg11
I10
ssI2001614471
(dp58
g9
I10
sg10
I10
sg11
I10
ssI1975143561
(dp59
g9
I48
sg10
I48
sg11
I48
ssI2252704394
(dp60
g9
I48
sg10
I48
sg11
I48
ssI1796417687
(dp61
g9
I48
sg10
I48
sg11
I48
ssI1811011232
(dp62
g9
I52
sg10
I52
sg11
I52
ssI1354064037
(dp63
g9
I52
sg10
I52
sg11
I52
ssI1987493032
(dp64
g9
I48
sg10
I48
sg11
I48
ssI1827272363
(dp65
g9
I23
sg10
I23
sg11
I23
ssI1945903280
(dp66
g9
I10
sg10
I10
sg11
I10
ssI1884718263
(dp67
g9
I23
sg10
I23
sg11
I23
ssI1812438204
(dp68
g9
I23
sg10
I23
sg11
I23
ssI2093632701
(dp69
g9
I52
sg10
I52
sg11
I52
ssI2562822850
(dp70
g9
I52
sg10
I52
sg11
I52
ssI1822241992
(dp71
g9
I48
sg10
I48
sg11
I48
ssI1850829007
(dp72
g9
I110
sg10
I110
sg11
I110
ssI2117412050
(dp73
g9
I23
sg10
I23
sg11
I23
ssI1860319955
(dp74
g9
I48
sg10
I48
sg11
I48
ssI1790017753
(dp75
g9
I10
sg10
I10
sg11
I10
ssI1697546970
(dp76
g9
I23
sg10
I23
sg11
I23
ssI1884707053
(dp77
g9
I23
sg10
I23
sg11
I23
ssI1765008342
(dp78
g9
I52
sg10
I52
sg11
I52
ssI1901886731
(dp79
g9
I23
sg10
I23
sg11
I23
ssI2165998352
(dp80
g9
I10
sg10
I10
sg11
I10
ssI1845534937
(dp81
g9
I23
sg10
I23
sg11
I23
ssI1747087653
(dp82
g9
I52
sg10
I52
sg11
I52
ssI1847127341
(dp83
g9
I52
sg10
I52
sg11
I52
ssI1247409967
(dp84
g9
I23
sg10
I23
sg11
I23
ssI2451067192
(dp85
g9
I52
sg10
I52
sg11
I52
ssI1957829952
(dp86
g9
I23
sg10
I23
sg11
I23
ssI1867878721
(dp87
g9
I10
sg10
I10
sg11
I10
ssI2447923012
(dp88
g9
I48
sg10
I48
sg11
I48
ssI2663907383
(dp89
g9
I52
sg10
I52
sg11
I52
ssI1951274317
(dp90
g9
I23
sg10
I23
sg11
I23
ssI2355709275
(dp91
g9
I52
sg10
I52
sg11
I52
ssI2431959902
(dp92
g9
I23
sg10
I23
sg11
I23
ssI1956046687
(dp93
g9
I52
sg10
I52
sg11
I52
ssI2327604070
(dp94
g9
I52
sg10
I52
sg11
I52
ssI1768199023
(dp95
g9
I48
sg10
I48
sg11
I48
ssI2108667252
(dp96
g9
I23
sg10
I23
sg11
I23
ssI1870867831
(dp97
g9
I10
sg10
I10
sg11
I10
ssI2365989753
(dp98
g9
I52
sg10
I52
sg11
I52
ssI1866195835
(dp99
g9
I52
sg10
I52
sg11
I52
ssI1878748040
(dp100
g9
I48
sg10
I48
sg11
I48
ssI1589750154
(dp101
g9
I23
sg10
I23
sg11
I23
ssI2078837131
(dp102
g9
I23
sg10
I23
sg11
I23
ssI1844152205
(dp103
g9
I23
sg10
I23
sg11
I23
ssI1760819093
(dp104
g9
I15
sg10
I15
sg11
I15
ssI2101027223
(dp105
g9
I10
sg10
I10
sg11
I10
ssI1948147105
(dp106
g9
I52
sg10
I52
sg11
I52
ssI1805127593
(dp107
g9
I48
sg10
I48
sg11
I48
ssI1896078253
(dp108
g9
I10
sg10
I10
sg11
I10
ssI1835774382
(dp109
g9
I52
sg10
I52
sg11
I52
ssI1872039351
(dp110
g9
I48
sg10
I48
sg11
I48
ssI1099422137
(dp111
g9
I10
sg10
I10
sg11
I10
ssI1075145661
(dp112
g9
I52
sg10
I52
sg11
I52
ssI2147980224
(dp113
g9
I52
sg10
I52
sg11
I52
ssI1885561283
(dp114
g9
I48
sg10
I48
sg11
I48
ssI1877966923
(dp115
g9
I48
sg10
I48
sg11
I48
ssI2046646217
(dp116
g9
I23
sg10
I23
sg11
I23
ssI3087893451
(dp117
g9
I10
sg10
I10
sg11
I10
ssI1871393230
(dp118
g9
I23
sg10
I23
sg11
I23
ssI1571390927
(dp119
g9
I10
sg10
I10
sg11
I10
ssI1964672470
(dp120
g9
I48
sg10
I48
sg11
I48
ssI1685472755
(dp121
g9
I110
sg10
I110
sg11
I110
ssI2419927540
(dp122
g9
I52
sg10
I52
sg11
I52
ssI1835123707
(dp123
g9
I23
sg10
I23
sg11
I23
ssI1822480380
(dp124
g9
I48
sg10
I48
sg11
I48
ssI1695017471
(dp125
g9
I52
sg10
I52
sg11
I52
sssS'graph'
p126
(dp127
sS'edge'
p128
(dp129
I2806947844
(dp130
I2078837131
(dp131
ssI1295695877
(dp132
I1799821432
(dp133
ssI1927184390
(dp134
I1865318532
(dp135
ssI1969905672
(dp136
I1945903280
(dp137
sI1790017753
(dp138
sI1782009354
(dp139
ssI1980137481
(dp140
I1075145661
(dp141
sI1758855230
(dp142
ssI1782009354
(dp143
I1867878721
(dp144
sI3087893451
(dp145
sI1865318532
(dp146
sI2001614471
(dp147
sI1969905672
g139
sI1898919531
(dp148
sI1945903280
(dp149
sI1896078253
(dp150
sI2165998352
(dp151
sI1641562132
(dp152
sI1790017753
(dp153
sI1099422137
(dp154
sI1870867831
(dp155
sI2101027223
(dp156
sI1701871671
(dp157
ssI2624356363
(dp158
I1847127341
(dp159
ssI2172968974
(dp160
I1811011232
(dp161
sI1847127341
(dp162
sI1769313814
(dp163
sI1862259767
(dp164
ssI1928757263
(dp165
I2046646217
(dp166
sI1812438204
(dp167
sI1884707053
(dp168
sI1247409967
(dp169
ssI1671348242
(dp170
I1866195835
(dp171
sI1844152205
(dp172
sI2046646217
(dp173
sI1589750154
(dp174
sI1901886731
(dp175
sI1951274317
(dp176
sI1893496911
(dp177
sI1884707053
(dp178
sI1769313814
(dp179
sI1913766423
(dp180
sI1845534937
(dp181
sI1835123707
(dp182
sI1812031004
(dp183
sI1769781374
(dp184
ssI1641562132
(dp185
I1945903280
(dp186
sI1898919531
(dp187
sI2001614471
(dp188
sI1782009354
g152
sI3087893451
(dp189
sI1896078253
(dp190
sI1870867831
(dp191
sI2165998352
(dp192
sI2101027223
(dp193
sI2749530171
(dp194
ssI1877277205
(dp195
I1812031004
(dp196
sI1811011232
(dp197
sI1948147105
(dp198
sI1747087653
(dp199
sI1847127341
(dp200
sI1835774382
(dp201
sI1862259767
(dp202
sI2451067192
(dp203
sI2367526841
(dp204
sI1638300730
(dp205
sI1956046687
(dp206
sI1075145661
(dp207
sI2147980224
(dp208
sI2562822850
(dp209
sI1677992523
(dp210
sI1765008342
(dp211
sI1902840921
(dp212
sI1354064037
(dp213
sI2327604070
(dp214
sI2093632701
(dp215
sI2419927540
(dp216
sI1799821432
(dp217
sI1866195835
(dp218
sI1695017471
(dp219
ssI1769313814
(dp220
I1589750154
(dp221
sI2078837131
(dp222
sI1844152205
(dp223
sI2172968974
g163
sI1671348242
g179
sI2787780132
(dp224
sI1827272363
(dp225
sI1840199725
(dp226
sI1247409967
(dp227
sI1884718263
(dp228
sI1075145661
(dp229
sI1957829952
(dp230
sI1951274317
(dp231
sI1871393230
(dp232
sI2117412050
(dp233
sI1697546970
(dp234
sI2431959902
(dp235
sI2327604070
(dp236
sI2108667252
(dp237
sI1799821432
(dp238
sI1835123707
(dp239
sI1769781374
(dp240
ssI1913766423
(dp241
I1589750154
(dp242
sI2078837131
(dp243
sI1844152205
(dp244
sI1671348242
g180
sI2787780132
(dp245
sI1827272363
(dp246
sI1840199725
(dp247
sI1247409967
(dp248
sI1884718263
(dp249
sI1812438204
(dp250
sI1957829952
(dp251
sI1901886731
(dp252
sI2046646217
(dp253
sI1951274317
(dp254
sI1871393230
(dp255
sI2117412050
(dp256
sI1697546970
(dp257
sI2431959902
(dp258
sI1835123707
(dp259
sI2108667252
(dp260
sI1799821432
(dp261
sI1866195835
(dp262
sI1769781374
(dp263
ssI1921564697
(dp264
I1765008342
(dp265
ssI1377525787
(dp266
I1760819093
(dp267
ssI1812031004
(dp268
I1809294351
(dp269
sI1671348242
g183
sI1877277205
g196
sI1948147105
(dp270
sI2787780132
(dp271
sI1747087653
(dp272
sI1835774382
(dp273
sI1862259767
(dp274
sI2367526841
(dp275
sI1638300730
(dp276
sI1956046687
(dp277
sI1075145661
(dp278
sI2147980224
(dp279
sI2562822850
(dp280
sI2046646217
(dp281
sI1677992523
(dp282
sI1893496911
(dp283
sI1765008342
(dp284
sI1902840921
(dp285
sI2355709275
(dp286
sI1354064037
(dp287
sI1835123707
(dp288
sI2327604070
(dp289
sI2093632701
(dp290
sI2419927540
(dp291
sI1799821432
(dp292
sI1866195835
(dp293
sI1769781374
(dp294
ssI1171750945
(dp295
I1880686632
(dp296
ssI2404646947
(dp297
I1884718263
(dp298
ssI2787780132
(dp299
I1589750154
(dp300
sI2078837131
(dp301
sI1844152205
(dp302
sI1769313814
g224
sI1913766423
g245
sI1812031004
g271
sI1827272363
(dp303
sI1840199725
(dp304
sI1247409967
(dp305
sI1862259767
(dp306
sI1812438204
(dp307
sI1957829952
(dp308
sI1901886731
(dp309
sI2046646217
(dp310
sI1951274317
(dp311
sI1871393230
(dp312
sI1893496911
(dp313
sI1845534937
(dp314
sI1697546970
(dp315
sI2431959902
(dp316
sI1866195835
(dp317
sI1884707053
(dp318
sI2108667252
(dp319
sI1835123707
(dp320
sI1769781374
(dp321
ssI1880686632
(dp322
I1987493032
(dp323
sI1171750945
g296
sI2631893034
(dp324
ssI2631893034
(dp325
I1880686632
g324
ssI1766719531
(dp326
I1075145661
(dp327
ssI1840199725
(dp328
I1589750154
(dp329
sI2078837131
(dp330
sI1844152205
(dp331
sI1769313814
g226
sI1913766423
g247
sI2787780132
g304
sI1827272363
(dp332
sI1862259767
(dp333
sI1812438204
(dp334
sI1957829952
(dp335
sI2046646217
(dp336
sI1884718263
(dp337
sI1951274317
(dp338
sI1871393230
(dp339
sI2117412050
(dp340
sI1845534937
(dp341
sI1697546970
(dp342
sI2431959902
(dp343
sI2108667252
(dp344
sI1799821432
(dp345
sI1835123707
(dp346
sI1769781374
(dp347
ssI2102132782
(dp348
I1765008342
(dp349
ssI2342092850
(dp350
I1812438204
(dp351
ssI2262204467
(dp352
I1964672470
(dp353
ssI1956184117
(dp354
I1847127341
(dp355
ssI1862259767
(dp356
I2147980224
(dp357
sI1589750154
(dp358
sI2078837131
(dp359
sI1844152205
(dp360
sI2172968974
g164
sI1847127341
(dp361
sI1877277205
g202
sI1812031004
g274
sI1811011232
(dp362
sI1948147105
(dp363
sI2355709275
(dp364
sI2787780132
g306
sI1354064037
(dp365
sI1827272363
(dp366
sI1840199725
g333
sI1884718263
(dp367
sI2451067192
(dp368
sI2419927540
(dp369
sI1638300730
(dp370
sI1075145661
(dp371
sI1957829952
(dp372
sI2562822850
(dp373
sI2046646217
(dp374
sI1677992523
(dp375
sI1951274317
(dp376
sI1871393230
(dp377
sI2117412050
(dp378
sI1765008342
(dp379
sI2367526841
(dp380
sI1902840921
(dp381
sI1697546970
(dp382
sI1809294351
(dp383
sI2431959902
(dp384
sI1956046687
(dp385
sI1866195835
(dp386
sI2327604070
(dp387
sI2093632701
(dp388
sI2108667252
(dp389
sI1799821432
(dp390
sI1835123707
(dp391
sI1769781374
(dp392
sI1695017471
(dp393
ssI1638300730
(dp394
I2147980224
(dp395
sI1948147105
(dp396
sI2562822850
(dp397
sI1956046687
(dp398
sI1747087653
(dp399
sI2327604070
(dp400
sI2395471882
(dp401
sI1847127341
(dp402
sI1835774382
(dp403
sI1809294351
(dp404
sI2419927540
(dp405
sI1877277205
g205
sI1862259767
g370
sI2451067192
(dp406
sI2367526841
(dp407
sI1811011232
(dp408
sI1812031004
g276
sI1075145661
(dp409
sI1354064037
(dp410
sI1695017471
(dp411
ssI2749530171
(dp412
I1641562132
g194
ssI2395471882
(dp413
I1638300730
g401
sI2562822850
(dp414
ssI1758855230
(dp415
I1980137481
g142
ssI1906344003
(dp416
I1910281152
(dp417
sI1885561283
(dp418
sI2447923012
(dp419
sI1987493032
(dp420
sI1805127593
(dp421
sI2252704394
(dp422
sI2158163021
(dp423
sI1768199023
(dp424
sI1822241992
(dp425
sI1860319955
(dp426
sI2674067061
(dp427
sI1964672470
(dp428
sI1796417687
(dp429
sI1822480380
(dp430
ssI1677992523
(dp431
I1811011232
(dp432
sI1948147105
(dp433
sI1956046687
(dp434
sI2367526841
(dp435
sI1747087653
(dp436
sI2327604070
(dp437
sI1847127341
(dp438
sI2093632701
(dp439
sI2451067192
(dp440
sI1877277205
g210
sI1765008342
(dp441
sI1862259767
g375
sI1799821432
(dp442
sI1902840921
(dp443
sI1866195835
(dp444
sI1812031004
g282
sI1075145661
(dp445
sI1354064037
(dp446
sI1695017471
(dp447
ssI2158163021
(dp448
I1910281152
(dp449
sI1906344003
g423
sI1987493032
(dp450
sI1975143561
(dp451
sI2252704394
(dp452
sI1872039351
(dp453
sI1768199023
(dp454
sI1805127593
(dp455
sI1885561283
(dp456
sI2674067061
(dp457
sI1964672470
(dp458
sI1796417687
(dp459
sI1822241992
(dp460
sI1822480380
(dp461
ssI1893496911
(dp462
I1957829952
(dp463
sI1827272363
(dp464
sI2787780132
g313
sI1844152205
(dp465
sI2046646217
(dp466
sI1589750154
(dp467
sI2078837131
(dp468
sI2117412050
(dp469
sI1871393230
(dp470
sI1951274317
(dp471
sI1866195835
(dp472
sI1671348242
g177
sI2108667252
(dp473
sI1769781374
(dp474
sI1884718263
(dp475
sI1799821432
(dp476
sI1697546970
(dp477
sI1835123707
(dp478
sI1812031004
g283
sI1075145661
(dp479
sI2431959902
(dp480
ssI2367526841
(dp481
I1901886731
(dp482
sI1809294351
(dp483
sI1877277205
g204
sI1812031004
g275
sI1811011232
(dp484
sI1354064037
(dp485
sI1847127341
(dp486
sI1835774382
(dp487
sI1862259767
g380
sI1638300730
g407
sI2093632701
(dp488
sI2147980224
(dp489
sI2562822850
(dp490
sI1677992523
g435
sI1902840921
(dp491
sI2355709275
(dp492
sI1956046687
(dp493
sI1747087653
(dp494
sI2327604070
(dp495
sI1075145661
(dp496
sI2419927540
(dp497
sI1695017471
(dp498
ssI1902840921
(dp499
I1811011232
(dp500
sI2562822850
(dp501
sI1747087653
(dp502
sI1677992523
g443
sI1835774382
(dp503
sI1075145661
(dp504
sI2451067192
(dp505
sI1877277205
g212
sI1862259767
g381
sI1799821432
(dp506
sI2367526841
g491
sI1956046687
(dp507
sI1812031004
g285
sI1872039351
(dp508
sI1695017471
(dp509
ssI1809294351
(dp510
I2147980224
(dp511
sI1948147105
(dp512
sI2562822850
(dp513
sI2355709275
(dp514
sI1956046687
(dp515
sI1747087653
(dp516
sI2327604070
(dp517
sI1901886731
(dp518
sI1847127341
(dp519
sI1835774382
(dp520
sI2093632701
(dp521
sI1765008342
(dp522
sI1862259767
g383
sI2451067192
(dp523
sI2367526841
g483
sI1638300730
g404
sI1866195835
(dp524
sI1812031004
g269
sI1075145661
(dp525
sI1354064037
(dp526
sI1695017471
(dp527
ssI1898919531
(dp528
I1945903280
(dp529
sI1870867831
(dp530
sI2001614471
(dp531
sI1782009354
g148
sI3087893451
(dp532
sI1896078253
(dp533
sI1571390927
(dp534
sI2165998352
(dp535
sI1641562132
g187
sI2101027223
(dp536
ssI2674067061
(dp537
I1910281152
(dp538
sI1906344003
g427
sI1885561283
(dp539
sI2447923012
(dp540
sI1987493032
(dp541
sI1805127593
(dp542
sI2252704394
(dp543
sI1872039351
(dp544
sI2158163021
g457
sI1768199023
(dp545
sI1822241992
(dp546
sI1860319955
(dp547
sI1796417687
(dp548
sI1822480380
(dp549
ssI1799821432
(dp550
I1295695877
g133
sI1847127341
(dp551
sI1877277205
g217
sI1769313814
g238
sI1913766423
g261
sI1812031004
g292
sI1884718263
(dp552
sI1948147105
(dp553
sI1747087653
(dp554
sI1827272363
(dp555
sI1840199725
g345
sI1835774382
(dp556
sI1862259767
g390
sI2451067192
(dp557
sI2108667252
(dp558
sI1812438204
(dp559
sI1075145661
(dp560
sI2147980224
(dp561
sI2562822850
(dp562
sI1677992523
g442
sI1893496911
g476
sI2117412050
(dp563
sI1902840921
g506
sI1697546970
(dp564
sI2327604070
(dp565
sI1884707053
(dp566
sI2419927540
(dp567
sI1845534937
(dp568
sI1695017471
(dp569
ssI1701871671
(dp570
I1782009354
g157
sI1571390927
(dp571
ssI1769781374
(dp572
I1589750154
(dp573
sI1901886731
(dp574
sI1844152205
(dp575
sI1671348242
g184
sI1769313814
g240
sI1913766423
g263
sI1812031004
g294
sI2787780132
g321
sI1827272363
(dp576
sI1840199725
g347
sI1247409967
(dp577
sI1884718263
(dp578
sI1812438204
(dp579
sI1957829952
(dp580
sI2046646217
(dp581
sI1862259767
g392
sI1871393230
(dp582
sI1893496911
g474
sI2117412050
(dp583
sI1845534937
(dp584
sI1697546970
(dp585
sI2431959902
(dp586
sI1884707053
(dp587
sI2108667252
(dp588
sI1835123707
(dp589
ssI1910281152
(dp590
I1906344003
g417
sI2447923012
(dp591
sI1987493032
(dp592
sI1805127593
(dp593
sI2252704394
(dp594
sI1796417687
(dp595
sI2158163021
g449
sI1885561283
(dp596
sI1768199023
(dp597
sI1822241992
(dp598
sI1860319955
(dp599
sI2674067061
g538
sI1964672470
(dp600
sI1872039351
(dp601
sI1822480380
(dp602
ssI1865318532
(dp603
I1099422137
(dp604
sI1782009354
g146
sI1927184390
g135
sI1867878721
(dp605
ssI2001614471
(dp606
I1945903280
(dp607
sI1898919531
g531
sI1782009354
g147
sI3087893451
(dp608
sI1896078253
(dp609
sI2165998352
(dp610
sI1641562132
g188
sI2101027223
(dp611
sI1870867831
(dp612
ssI1975143561
(dp613
I1987493032
(dp614
sI1805127593
(dp615
sI2252704394
(dp616
sI1796417687
(dp617
sI2158163021
g451
sI1768199023
(dp618
sI1878748040
(dp619
sI1860319955
(dp620
sI1964672470
(dp621
sI1872039351
(dp622
sI1822241992
(dp623
sI1822480380
(dp624
ssI2252704394
(dp625
I1910281152
g594
sI1906344003
g422
sI2447923012
(dp626
sI1987493032
(dp627
sI1975143561
g616
sI1796417687
(dp628
sI2158163021
g452
sI1885561283
(dp629
sI1768199023
(dp630
sI1805127593
(dp631
sI1860319955
(dp632
sI2674067061
g543
sI1964672470
(dp633
sI1872039351
(dp634
sI1822241992
(dp635
sI1822480380
(dp636
ssI1796417687
(dp637
I1910281152
g595
sI1906344003
g429
sI2447923012
(dp638
sI1987493032
(dp639
sI1975143561
g617
sI2252704394
g628
sI2158163021
g459
sI1885561283
(dp640
sI1768199023
(dp641
sI1878748040
(dp642
sI1860319955
(dp643
sI2674067061
g548
sI1964672470
(dp644
sI1872039351
(dp645
sI1822241992
(dp646
sI1822480380
(dp647
ssI1811011232
(dp648
I2147980224
(dp649
sI1354064037
(dp650
sI2562822850
(dp651
sI1747087653
(dp652
sI2327604070
(dp653
sI1677992523
g432
sI1877277205
g197
sI1951274317
(dp654
sI2172968974
g161
sI1847127341
(dp655
sI2367526841
g484
sI2419927540
(dp656
sI1835774382
(dp657
sI1862259767
g362
sI1902840921
g500
sI1638300730
g408
sI1956046687
(dp658
sI1075145661
(dp659
sI1695017471
(dp660
ssI1354064037
(dp661
I1811011232
g650
sI1948147105
(dp662
sI2562822850
(dp663
sI2355709275
(dp664
sI2147980224
(dp665
sI1747087653
(dp666
sI2327604070
(dp667
sI1677992523
g446
sI1847127341
(dp668
sI1835774382
(dp669
sI1809294351
g526
sI2419927540
(dp670
sI1877277205
g213
sI1862259767
g365
sI2451067192
(dp671
sI2367526841
g485
sI1638300730
g410
sI1866195835
(dp672
sI1812031004
g287
sI2093632701
(dp673
sI1695017471
(dp674
ssI1987493032
(dp675
I1910281152
g592
sI1906344003
g420
sI2447923012
(dp676
sI1878748040
(dp677
sI1975143561
g614
sI2252704394
g627
sI1796417687
g639
sI2158163021
g450
sI1885561283
(dp678
sI1768199023
(dp679
sI1880686632
g323
sI1860319955
(dp680
sI2674067061
g541
sI1964672470
(dp681
sI1872039351
(dp682
sI1805127593
(dp683
sI1822241992
(dp684
sI1822480380
(dp685
ssI1827272363
(dp686
I1589750154
(dp687
sI2078837131
(dp688
sI1844152205
(dp689
sI1769313814
g225
sI1913766423
g246
sI2787780132
g303
sI1840199725
g332
sI1247409967
(dp690
sI1884718263
(dp691
sI1812438204
(dp692
sI1957829952
(dp693
sI1901886731
(dp694
sI2046646217
(dp695
sI1862259767
g366
sI1951274317
(dp696
sI1871393230
(dp697
sI1893496911
g464
sI2117412050
(dp698
sI1845534937
(dp699
sI1697546970
(dp700
sI2431959902
(dp701
sI1884707053
(dp702
sI2108667252
(dp703
sI1799821432
g555
sI1835123707
(dp704
sI1769781374
g576
ssI1945903280
(dp705
I1898919531
g529
sI2001614471
g607
sI1969905672
g137
sI1782009354
g149
sI3087893451
(dp706
sI1896078253
(dp707
sI2165998352
(dp708
sI1641562132
g186
sI2101027223
(dp709
sI1870867831
(dp710
ssI1884718263
(dp711
I1589750154
(dp712
sI1901886731
(dp713
sI1844152205
(dp714
sI1769313814
g228
sI1913766423
g249
sI2404646947
g298
sI1827272363
g691
sI1840199725
g337
sI1247409967
(dp715
sI1862259767
g367
sI1812438204
(dp716
sI1957829952
(dp717
sI2078837131
(dp718
sI2046646217
(dp719
sI1951274317
(dp720
sI1871393230
(dp721
sI1893496911
g475
sI2117412050
(dp722
sI1845534937
(dp723
sI1697546970
(dp724
sI2431959902
(dp725
sI2108667252
(dp726
sI1799821432
g552
sI1835123707
(dp727
sI1769781374
g578
ssI1812438204
(dp728
I1844152205
(dp729
sI1928757263
g167
sI1913766423
g250
sI2787780132
g307
sI1827272363
g692
sI1840199725
g334
sI1835774382
(dp730
sI1247409967
(dp731
sI2342092850
g351
sI1884718263
g716
sI1957829952
(dp732
sI2046646217
(dp733
sI1951274317
(dp734
sI1871393230
(dp735
sI2117412050
(dp736
sI1845534937
(dp737
sI1697546970
(dp738
sI2431959902
(dp739
sI2108667252
(dp740
sI1799821432
g559
sI1835123707
(dp741
sI1769781374
g579
ssI2093632701
(dp742
I2147980224
(dp743
sI1948147105
(dp744
sI2562822850
(dp745
sI1901886731
(dp746
sI1956046687
(dp747
sI1354064037
g673
sI2327604070
(dp748
sI1677992523
g439
sI1847127341
(dp749
sI1835774382
(dp750
sI1809294351
g521
sI1747087653
(dp751
sI2419927540
(dp752
sI1877277205
g215
sI1765008342
(dp753
sI1862259767
g388
sI2451067192
(dp754
sI2367526841
g488
sI2355709275
(dp755
sI1812031004
g290
sI1695017471
(dp756
ssI2562822850
(dp757
I2395471882
g414
sI1809294351
g513
sI1877277205
g209
sI1812031004
g280
sI1811011232
g651
sI1747087653
(dp758
sI1847127341
(dp759
sI1835774382
(dp760
sI1862259767
g373
sI2451067192
(dp761
sI2367526841
g490
sI1638300730
g397
sI1956046687
(dp762
sI2093632701
g745
sI2147980224
(dp763
sI1765008342
(dp764
sI1902840921
g501
sI1354064037
g663
sI2327604070
(dp765
sI1075145661
(dp766
sI2419927540
(dp767
sI1799821432
g562
sI1695017471
(dp768
ssI1822241992
(dp769
I1910281152
g598
sI1885561283
(dp770
sI2447923012
(dp771
sI1987493032
g684
sI1805127593
(dp772
sI2252704394
g635
sI1796417687
g646
sI2158163021
g460
sI1768199023
(dp773
sI1906344003
g425
sI2674067061
g546
sI1964672470
(dp774
sI1975143561
g623
sI1822480380
(dp775
sI1860319955
(dp776
ssI1850829007
(dp777
I1099422137
(dp778
sI1685472755
(dp779
ssI2117412050
(dp780
I1589750154
(dp781
sI2078837131
(dp782
sI1769313814
g233
sI1913766423
g256
sI1827272363
g698
sI1840199725
g340
sI1247409967
(dp783
sI1884718263
g722
sI1812438204
g736
sI1957829952
(dp784
sI2046646217
(dp785
sI1862259767
g378
sI1951274317
(dp786
sI1871393230
(dp787
sI1893496911
g469
sI1845534937
(dp788
sI1697546970
(dp789
sI2431959902
(dp790
sI1884707053
(dp791
sI2108667252
(dp792
sI1799821432
g563
sI1835123707
(dp793
sI1769781374
g583
ssI1860319955
(dp794
I1910281152
g599
sI1906344003
g426
sI2447923012
(dp795
sI1987493032
g680
sI1975143561
g620
sI2252704394
g632
sI1872039351
(dp796
sI1768199023
(dp797
sI1878748040
(dp798
sI1885561283
(dp799
sI2674067061
g547
sI1964672470
(dp800
sI1796417687
g643
sI1805127593
(dp801
sI1822241992
g776
sI1822480380
(dp802
ssI1790017753
(dp803
I1969905672
g138
sI1782009354
g153
ssI1697546970
(dp804
I1589750154
(dp805
sI1901886731
(dp806
sI1844152205
(dp807
sI1769313814
g234
sI1913766423
g257
sI2787780132
g315
sI1827272363
g700
sI1840199725
g342
sI1247409967
(dp808
sI1862259767
g382
sI1812438204
g738
sI1957829952
(dp809
sI2078837131
(dp810
sI2046646217
(dp811
sI1884718263
g724
sI1951274317
(dp812
sI1871393230
(dp813
sI1893496911
g477
sI2117412050
g789
sI1845534937
(dp814
sI2431959902
(dp815
sI1884707053
(dp816
sI2108667252
(dp817
sI1799821432
g564
sI1835123707
(dp818
sI1769781374
g585
ssI1884707053
(dp819
I1901886731
(dp820
sI2787780132
g318
sI2117412050
g791
sI1827272363
g702
sI1844152205
(dp821
sI1871393230
(dp822
sI1928757263
g168
sI1671348242
g178
sI2108667252
(dp823
sI1799821432
g566
sI1697546970
g816
sI1769781374
g587
ssI1765008342
(dp824
I2147980224
(dp825
sI1948147105
(dp826
sI2562822850
g764
sI2355709275
(dp827
sI1956046687
(dp828
sI1747087653
(dp829
sI1677992523
g441
sI1835774382
(dp830
sI1809294351
g522
sI2102132782
g349
sI2419927540
(dp831
sI1877277205
g211
sI1862259767
g379
sI1871393230
(dp832
sI1921564697
g265
sI1866195835
(dp833
sI1812031004
g284
sI2093632701
g753
sI1695017471
(dp834
ssI1901886731
(dp835
I2147980224
(dp836
sI2078837131
(dp837
sI1844152205
(dp838
sI1809294351
g518
sI1671348242
g175
sI1913766423
g252
sI2787780132
g309
sI2108667252
(dp839
sI1827272363
g694
sI1835774382
(dp840
sI1884718263
g713
sI2367526841
g482
sI2093632701
g746
sI1957829952
(dp841
sI2046646217
(dp842
sI1951274317
(dp843
sI1697546970
g806
sI2355709275
(dp844
sI1956046687
(dp845
sI1835123707
(dp846
sI1884707053
g820
sI2419927540
(dp847
sI1866195835
(dp848
sI1769781374
g574
sI1695017471
(dp849
ssI2165998352
(dp850
I1898919531
g535
sI2001614471
g610
sI1782009354
g151
sI3087893451
(dp851
sI1896078253
(dp852
sI1571390927
(dp853
sI1945903280
g708
sI1641562132
g192
sI2101027223
(dp854
sI1870867831
(dp855
ssI1845534937
(dp856
I1957829952
(dp857
sI1671348242
g181
sI2078837131
(dp858
sI2787780132
g314
sI1827272363
g699
sI1844152205
(dp859
sI1871393230
(dp860
sI1840199725
g341
sI2117412050
g788
sI2108667252
(dp861
sI1769781374
g584
sI1951274317
(dp862
sI1884718263
g723
sI1799821432
g568
sI1697546970
g814
sI1812438204
g737
sI2431959902
(dp863
ssI1747087653
(dp864
I1809294351
g516
sI1877277205
g199
sI1812031004
g272
sI1811011232
g652
sI1948147105
(dp865
sI1354064037
g666
sI1847127341
(dp866
sI1835774382
(dp867
sI2663907383
(dp868
sI2451067192
(dp869
sI2367526841
g494
sI1638300730
g399
sI1075145661
(dp870
sI2147980224
(dp871
sI2562822850
g758
sI1677992523
g436
sI1765008342
g829
sI1902840921
g502
sI2355709275
(dp872
sI1956046687
(dp873
sI2327604070
(dp874
sI2093632701
g751
sI2419927540
(dp875
sI1799821432
g554
sI1866195835
(dp876
sI1695017471
(dp877
ssI1847127341
(dp878
I2624356363
g159
sI2172968974
g162
sI1809294351
g519
sI1877277205
g200
sI1811011232
g655
sI1948147105
(dp879
sI1747087653
g866
sI1835774382
(dp880
sI1956184117
g355
sI1862259767
g361
sI2451067192
(dp881
sI2367526841
g486
sI1638300730
g402
sI1075145661
(dp882
sI2147980224
(dp883
sI2562822850
g759
sI1677992523
g438
sI1951274317
(dp884
sI2355709275
(dp885
sI1354064037
g668
sI2327604070
(dp886
sI2093632701
g749
sI2419927540
(dp887
sI1799821432
g551
sI1866195835
(dp888
sI1695017471
(dp889
ssI1247409967
(dp890
I1877966923
(dp891
sI2787780132
g305
sI1913766423
g248
sI2046646217
(dp892
sI1827272363
g690
sI1951274317
(dp893
sI1871393230
(dp894
sI1928757263
g169
sI2355709275
(dp895
sI2117412050
g783
sI2108667252
(dp896
sI1769313814
g227
sI1884718263
g715
sI1697546970
g808
sI1835123707
(dp897
sI1812438204
g731
sI1769781374
g577
ssI2451067192
(dp898
I1809294351
g523
sI1877277205
g203
sI1948147105
(dp899
sI1747087653
g869
sI1847127341
g881
sI1835774382
(dp900
sI1862259767
g368
sI1638300730
g406
sI2093632701
g754
sI2147980224
(dp901
sI2562822850
g761
sI1677992523
g440
sI1871393230
(dp902
sI1902840921
g505
sI1956046687
(dp903
sI1354064037
g671
sI2327604070
(dp904
sI1075145661
(dp905
sI2419927540
(dp906
sI1799821432
g557
sI1866195835
(dp907
sI1695017471
(dp908
ssI1957829952
(dp909
I1589750154
(dp910
sI1901886731
g841
sI1844152205
(dp911
sI1769313814
g230
sI1913766423
g251
sI2787780132
g308
sI1827272363
g693
sI1840199725
g335
sI1862259767
g372
sI1812438204
g732
sI1075145661
(dp912
sI2078837131
(dp913
sI2046646217
(dp914
sI1884718263
g717
sI1951274317
(dp915
sI1871393230
(dp916
sI1893496911
g463
sI2117412050
g784
sI1845534937
g857
sI1697546970
g809
sI2431959902
(dp917
sI2108667252
(dp918
sI1835123707
(dp919
sI1769781374
g580
ssI1867878721
(dp920
I1099422137
(dp921
sI1782009354
g144
sI1865318532
g605
ssI2447923012
(dp922
I1910281152
g591
sI1906344003
g419
sI1964672470
(dp923
sI1987493032
g676
sI1805127593
(dp924
sI2252704394
g626
sI1872039351
(dp925
sI1768199023
(dp926
sI1822241992
g771
sI1885561283
(dp927
sI2674067061
g540
sI1860319955
g795
sI1796417687
g638
sI1822480380
(dp928
ssI2663907383
(dp929
I1747087653
g868
ssI1951274317
(dp930
I1589750154
(dp931
sI1901886731
g843
sI1844152205
(dp932
sI1840199725
g338
sI1671348242
g176
sI1769313814
g231
sI1913766423
g254
sI1811011232
g654
sI2787780132
g311
sI1827272363
g696
sI1847127341
g884
sI1247409967
g893
sI1884718263
g720
sI1812438204
g734
sI1957829952
g915
sI2078837131
(dp933
sI2046646217
(dp934
sI1862259767
g376
sI1871393230
(dp935
sI1893496911
g471
sI2117412050
g786
sI1845534937
g862
sI1697546970
g812
sI2431959902
(dp936
sI2108667252
(dp937
sI1835123707
(dp938
ssI2355709275
(dp939
I2147980224
(dp940
sI1948147105
(dp941
sI1956046687
(dp942
sI1354064037
g664
sI2327604070
(dp943
sI1809294351
g514
sI1075145661
(dp944
sI1901886731
g844
sI1847127341
g885
sI1835774382
(dp945
sI1247409967
g895
sI1747087653
g872
sI2419927540
(dp946
sI1765008342
g827
sI1862259767
g364
sI2367526841
g492
sI1866195835
(dp947
sI1812031004
g286
sI2093632701
g755
sI2431959902
(dp948
sI1695017471
(dp949
ssI2431959902
(dp950
I1589750154
(dp951
sI2078837131
(dp952
sI1844152205
(dp953
sI1769313814
g235
sI1913766423
g258
sI2787780132
g316
sI1827272363
g701
sI1840199725
g343
sI1862259767
g384
sI1812438204
g739
sI1957829952
g917
sI2046646217
(dp954
sI1884718263
g725
sI1951274317
g936
sI1871393230
(dp955
sI1893496911
g480
sI2117412050
g790
sI1845534937
g863
sI1697546970
g815
sI2355709275
g948
sI2108667252
(dp956
sI1835123707
(dp957
sI1769781374
g586
ssI1956046687
(dp958
I1901886731
g845
sI1809294351
g515
sI1877277205
g206
sI1812031004
g277
sI1811011232
g658
sI1747087653
g873
sI1835774382
(dp959
sI1862259767
g385
sI2451067192
g903
sI2367526841
g493
sI1638300730
g398
sI1075145661
(dp960
sI2147980224
(dp961
sI2562822850
g762
sI1677992523
g434
sI1765008342
g828
sI1902840921
g507
sI2355709275
g942
sI2327604070
(dp962
sI2093632701
g747
sI2419927540
(dp963
sI1866195835
(dp964
sI1695017471
(dp965
ssI2327604070
(dp966
I1809294351
g517
sI1877277205
g214
sI1769313814
g236
sI1812031004
g289
sI1811011232
g653
sI1948147105
(dp967
sI1747087653
g874
sI1847127341
g886
sI1835774382
(dp968
sI1862259767
g387
sI2451067192
g904
sI2367526841
g495
sI1638300730
g400
sI1956046687
g962
sI2093632701
g748
sI2147980224
(dp969
sI2562822850
g765
sI1677992523
g437
sI2355709275
g943
sI1354064037
g667
sI1075145661
(dp970
sI1799821432
g565
sI1866195835
(dp971
sI1695017471
(dp972
ssI1768199023
(dp973
I1910281152
g597
sI1906344003
g424
sI2447923012
g926
sI1987493032
g679
sI1975143561
g618
sI2252704394
g630
sI1796417687
g641
sI2158163021
g454
sI1885561283
(dp974
sI1878748040
(dp975
sI1860319955
g797
sI2674067061
g545
sI1964672470
(dp976
sI1872039351
(dp977
sI1805127593
(dp978
sI1822241992
g773
sI1822480380
(dp979
ssI2108667252
(dp980
I1589750154
(dp981
sI1901886731
g839
sI1844152205
(dp982
sI1769313814
g237
sI1913766423
g260
sI2787780132
g319
sI1827272363
g703
sI1840199725
g344
sI1247409967
g896
sI1884718263
g726
sI1812438204
g740
sI1957829952
g918
sI2078837131
(dp983
sI2046646217
(dp984
sI1862259767
g389
sI1951274317
g937
sI1871393230
(dp985
sI1893496911
g473
sI2117412050
g792
sI1845534937
g861
sI1697546970
g817
sI2431959902
g956
sI1884707053
g823
sI1799821432
g558
sI1835123707
(dp986
sI1769781374
g588
ssI1870867831
(dp987
I1945903280
g710
sI3087893451
(dp988
sI2001614471
g612
sI1782009354
g155
sI1898919531
g530
sI1896078253
(dp989
sI1571390927
(dp990
sI2165998352
g855
sI1641562132
g191
sI2101027223
(dp991
ssI2365989753
(dp992
I1948147105
(dp993
ssI1866195835
(dp994
I1901886731
g848
sI1809294351
g524
sI1671348242
g171
sI1877277205
g218
sI1913766423
g262
sI1812031004
g293
sI1948147105
(dp995
sI2787780132
g317
sI1747087653
g876
sI1847127341
g888
sI1835774382
(dp996
sI1862259767
g386
sI2451067192
g907
sI1956046687
g964
sI1075145661
(dp997
sI2147980224
(dp998
sI1677992523
g444
sI1893496911
g472
sI1765008342
g833
sI2355709275
g947
sI1354064037
g672
sI2327604070
g971
sI2419927540
(dp999
sI1835123707
(dp1000
sI1695017471
(dp1001
ssI1878748040
(dp1002
I1987493032
g677
sI1975143561
g619
sI1796417687
g642
sI1768199023
g975
sI1860319955
g798
sI1872039351
(dp1003
sI1822480380
(dp1004
ssI1589750154
(dp1005
I1957829952
g910
sI1951274317
g931
sI1671348242
g174
sI1827272363
g687
sI2787780132
g300
sI1913766423
g242
sI1844152205
(dp1006
sI2046646217
(dp1007
sI2078837131
(dp1008
sI1840199725
g329
sI1871393230
(dp1009
sI1893496911
g467
sI2117412050
g781
sI2108667252
g981
sI1769781374
g573
sI1769313814
g221
sI1884718263
g712
sI1862259767
g358
sI1697546970
g805
sI1835123707
(dp1010
sI2431959902
g951
ssI2078837131
(dp1011
I2806947844
g131
sI1589750154
g1008
sI1901886731
g837
sI1844152205
(dp1012
sI1769313814
g222
sI1913766423
g243
sI2787780132
g301
sI1827272363
g688
sI1840199725
g330
sI1884718263
g718
sI1957829952
g913
sI2046646217
(dp1013
sI1862259767
g359
sI1951274317
g933
sI1871393230
(dp1014
sI1893496911
g468
sI2117412050
g782
sI1845534937
g858
sI1697546970
g810
sI2431959902
g952
sI2108667252
g983
sI1835123707
(dp1015
ssI1844152205
(dp1016
I1957829952
g911
sI1589750154
g1006
sI2078837131
g1012
sI1671348242
g172
sI1769313814
g223
sI1913766423
g244
sI2787780132
g302
sI1827272363
g689
sI1840199725
g331
sI1884718263
g714
sI1812438204
g729
sI2147980224
(dp1017
sI1901886731
g838
sI2046646217
(dp1018
sI1862259767
g360
sI1951274317
g932
sI1871393230
(dp1019
sI1893496911
g465
sI1845534937
g859
sI1697546970
g807
sI2431959902
g953
sI1884707053
g821
sI2108667252
g982
sI1835123707
(dp1020
sI1769781374
g575
ssI1760819093
(dp1021
I1377525787
g267
ssI2101027223
(dp1022
I1945903280
g709
sI1898919531
g536
sI2001614471
g611
sI1782009354
g156
sI3087893451
(dp1023
sI1896078253
(dp1024
sI2165998352
g854
sI1641562132
g193
sI1870867831
g991
ssI1948147105
(dp1025
I1809294351
g512
sI1877277205
g198
sI1862259767
g363
sI1812031004
g270
sI1354064037
g662
sI1847127341
g879
sI1835774382
(dp1026
sI1872039351
(dp1027
sI2451067192
g899
sI1638300730
g396
sI2093632701
g744
sI2147980224
(dp1028
sI1677992523
g433
sI1765008342
g826
sI2355709275
g941
sI1747087653
g865
sI2327604070
g967
sI1075145661
(dp1029
sI2419927540
(dp1030
sI1799821432
g553
sI2365989753
g993
sI1866195835
g995
sI1695017471
(dp1031
ssI1805127593
(dp1032
I1910281152
g593
sI1906344003
g421
sI2447923012
g924
sI1987493032
g683
sI1975143561
g615
sI2252704394
g631
sI2158163021
g455
sI1885561283
(dp1033
sI1768199023
g978
sI1822241992
g772
sI1860319955
g801
sI2674067061
g542
sI1964672470
(dp1034
sI1822480380
(dp1035
ssI1896078253
(dp1036
I1945903280
g707
sI1898919531
g533
sI2001614471
g609
sI1782009354
g150
sI3087893451
(dp1037
sI2165998352
g852
sI1641562132
g190
sI2101027223
g1024
sI1870867831
g989
ssI1835774382
(dp1038
I1901886731
g840
sI1809294351
g520
sI1877277205
g201
sI1812031004
g273
sI1811011232
g657
sI1948147105
g1026
sI1747087653
g867
sI1847127341
g880
sI2451067192
g900
sI2367526841
g487
sI1638300730
g403
sI1956046687
g959
sI1812438204
g730
sI1075145661
(dp1039
sI2147980224
(dp1040
sI2562822850
g760
sI1871393230
(dp1041
sI1765008342
g830
sI1902840921
g503
sI2355709275
g945
sI1354064037
g669
sI2327604070
g968
sI2093632701
g750
sI2419927540
(dp1042
sI1799821432
g556
sI1866195835
g996
sI1695017471
(dp1043
ssI1872039351
(dp1044
I1910281152
g601
sI1948147105
g1027
sI1885561283
(dp1045
sI2447923012
g925
sI1987493032
g682
sI1975143561
g622
sI2252704394
g634
sI1877966923
(dp1046
sI2158163021
g453
sI1768199023
g977
sI1878748040
g1003
sI1860319955
g796
sI2674067061
g544
sI1964672470
(dp1047
sI1796417687
g645
sI1902840921
g508
sI1822480380
(dp1048
ssI1099422137
(dp1049
I1867878721
g921
sI1782009354
g154
sI1685472755
(dp1050
sI1865318532
g604
sI1850829007
g778
ssI1075145661
(dp1051
I2147980224
(dp1052
sI1980137481
g141
sI1809294351
g525
sI1877277205
g207
sI1769313814
g229
sI1812031004
g278
sI1811011232
g659
sI1948147105
g1029
sI1747087653
g870
sI1766719531
g327
sI1847127341
g882
sI1835774382
g1039
sI1862259767
g371
sI2451067192
g905
sI2367526841
g496
sI1638300730
g409
sI1957829952
g912
sI2562822850
g766
sI1677992523
g445
sI1893496911
g479
sI1902840921
g504
sI2355709275
g944
sI1956046687
g960
sI2327604070
g970
sI2419927540
(dp1053
sI1799821432
g560
sI1866195835
g997
sI1695017471
(dp1054
ssI2147980224
(dp1055
I1901886731
g836
sI1844152205
g1017
sI1809294351
g511
sI1877277205
g208
sI1812031004
g279
sI1811011232
g649
sI1948147105
g1028
sI1747087653
g871
sI1847127341
g883
sI1835774382
g1040
sI1862259767
g357
sI2451067192
g901
sI2367526841
g489
sI1638300730
g395
sI1956046687
g961
sI1075145661
g1052
sI2562822850
g763
sI1765008342
g825
sI2355709275
g940
sI1354064037
g665
sI2327604070
g969
sI2093632701
g743
sI2419927540
(dp1056
sI1799821432
g561
sI1866195835
g998
sI1695017471
(dp1057
ssI1885561283
(dp1058
I1910281152
g596
sI1906344003
g418
sI2447923012
g927
sI1987493032
g678
sI1805127593
g1033
sI2252704394
g629
sI1796417687
g640
sI2158163021
g456
sI1768199023
g974
sI1822241992
g770
sI1860319955
g799
sI2674067061
g539
sI1964672470
(dp1059
sI1872039351
g1045
sI1822480380
(dp1060
ssI1877966923
(dp1061
I1247409967
g891
sI1872039351
g1046
ssI2046646217
(dp1062
I1589750154
g1007
sI2078837131
g1013
sI1844152205
g1018
sI1928757263
g166
sI1671348242
g173
sI1913766423
g253
sI1812031004
g281
sI2787780132
g310
sI1827272363
g695
sI1840199725
g336
sI1247409967
g892
sI1884718263
g719
sI1812438204
g733
sI1957829952
g914
sI1901886731
g842
sI1862259767
g374
sI1951274317
g934
sI1871393230
(dp1063
sI1893496911
g466
sI2117412050
g785
sI1697546970
g811
sI2431959902
g954
sI2108667252
g984
sI1835123707
(dp1064
sI1769781374
g581
ssI3087893451
(dp1065
I1945903280
g706
sI1870867831
g988
sI2001614471
g608
sI1782009354
g145
sI1898919531
g532
sI1896078253
g1037
sI1571390927
(dp1066
sI2165998352
g851
sI1641562132
g189
sI2101027223
g1023
ssI1871393230
(dp1067
I1589750154
g1009
sI2078837131
g1014
sI1844152205
g1019
sI1769313814
g232
sI1913766423
g255
sI2787780132
g312
sI1827272363
g697
sI1840199725
g339
sI1835774382
g1041
sI1247409967
g894
sI1884718263
g721
sI2451067192
g902
sI1812438204
g735
sI1957829952
g916
sI2046646217
g1063
sI1862259767
g377
sI1951274317
g935
sI1893496911
g470
sI2117412050
g787
sI1765008342
g832
sI1845534937
g860
sI1697546970
g813
sI2431959902
g955
sI1884707053
g822
sI2108667252
g985
sI1835123707
(dp1068
sI1769781374
g582
sI1695017471
(dp1069
ssI1571390927
(dp1070
I2165998352
g853
sI3087893451
g1066
sI1898919531
g534
sI1870867831
g990
sI1701871671
g571
ssI1964672470
(dp1071
I1910281152
g600
sI1906344003
g428
sI2447923012
g923
sI1987493032
g681
sI1975143561
g621
sI2252704394
g633
sI1872039351
g1047
sI2158163021
g458
sI1885561283
g1059
sI1768199023
g976
sI1805127593
g1034
sI2262204467
g353
sI1860319955
g800
sI1796417687
g644
sI1822241992
g774
sI1822480380
(dp1072
ssI1685472755
(dp1073
I1099422137
g1050
sI1850829007
g779
ssI2419927540
(dp1074
I1901886731
g847
sI1877277205
g216
sI1812031004
g291
sI1811011232
g656
sI1948147105
g1030
sI1747087653
g875
sI1847127341
g887
sI1835774382
g1042
sI1862259767
g369
sI2451067192
g906
sI2367526841
g497
sI1638300730
g405
sI1956046687
g963
sI2093632701
g752
sI2147980224
g1056
sI2562822850
g767
sI1765008342
g831
sI2355709275
g946
sI1354064037
g670
sI1075145661
g1053
sI1799821432
g567
sI1866195835
g999
sI1695017471
(dp1075
ssI1835123707
(dp1076
I1589750154
g1010
sI1901886731
g846
sI1844152205
g1020
sI1671348242
g182
sI1769313814
g239
sI1913766423
g259
sI1812031004
g288
sI2787780132
g320
sI1827272363
g704
sI1840199725
g346
sI1247409967
g897
sI1884718263
g727
sI1812438204
g741
sI1957829952
g919
sI2078837131
g1015
sI2046646217
g1064
sI1862259767
g391
sI1951274317
g938
sI1871393230
g1068
sI1893496911
g478
sI2117412050
g793
sI1697546970
g818
sI2431959902
g957
sI2108667252
g986
sI1866195835
g1000
sI1769781374
g589
ssI1822480380
(dp1077
I1910281152
g602
sI1906344003
g430
sI2447923012
g928
sI1987493032
g685
sI1975143561
g624
sI2252704394
g636
sI1796417687
g647
sI2158163021
g461
sI1885561283
g1060
sI1768199023
g979
sI1878748040
g1004
sI1860319955
g802
sI2674067061
g549
sI1964672470
g1072
sI1872039351
g1048
sI1805127593
g1035
sI1822241992
g775
ssI1695017471
(dp1078
I1901886731
g849
sI1809294351
g527
sI1877277205
g219
sI1811011232
g660
sI1948147105
g1031
sI1747087653
g877
sI1847127341
g889
sI1835774382
g1043
sI1862259767
g393
sI2451067192
g908
sI2367526841
g498
sI1638300730
g411
sI1956046687
g965
sI1075145661
g1054
sI2147980224
g1057
sI2562822850
g768
sI1677992523
g447
sI1871393230
g1069
sI1765008342
g834
sI1902840921
g509
sI2355709275
g949
sI1354064037
g674
sI2327604070
g972
sI2093632701
g756
sI2419927540
g1075
sI1799821432
g569
sI1866195835
g1001
sssS'adj'
p1079
g129
sb.